; Function Attrs: mustprogress uwtable
define noundef zeroext i1 @_ZN5draco38SequentialQuantizationAttributeDecoder23DecodeQuantizedDataInfoEv(ptr noundef nonnull align 8 dereferenceable(96) %0) unnamed_addr #3 align 2 {
  %2 = tail call noundef ptr @_ZN5draco26SequentialAttributeDecoder20GetPortableAttributeEv(ptr noundef nonnull align 8 dereferenceable(40) %0)
  %3 = icmp eq ptr %2, null
  %4 = getelementptr inbounds i8, ptr %0, i64 16
  %5 = load ptr, ptr %4, align 8
  %.0 = select i1 %3, ptr %5, ptr %2
  %6 = getelementptr inbounds i8, ptr %0, i64 48
  %7 = getelementptr inbounds i8, ptr %0, i64 8
  %8 = load ptr, ptr %7, align 8
  %9 = getelementptr inbounds i8, ptr %8, i64 64
  %10 = load ptr, ptr %9, align 8
  %11 = tail call noundef zeroext i1 @_ZN5draco30AttributeQuantizationTransform16DecodeParametersERKNS_14PointAttributeEPNS_13DecoderBufferE(ptr noundef nonnull align 8 dereferenceable(44) %6, ptr noundef nonnull align 8 dereferenceable(112) %.0, ptr noundef %10)
  ret i1 %11
}